(dp0
F-3.25
F0.0006
sF-2.75
F0.003
sF-1.33
F0.0918
sF3.0
F0.9987
sF-1.68
F0.0465
sF-2.5
F0.0062
sF-1.79
F0.0367
sF-1.14
F0.1271
sF2.0
F0.9772
sF-0.32
F0.3745
sF3.2
F0.9993
sF2.91
F0.9982
sF-2.9
F0.0019
sF3.37
F0.9996
sF-0.75
F0.2266
sF2.83
F0.9977
sF1.0
F0.8413
sF0.12
F0.5478
sF0.46
F0.6772
sF2.03
F0.9788
sF3.29
F0.9995
sF-2.32
F0.0102
sF1.5
F0.9332
sF3.21
F0.9993
sF-1.58
F0.0571
sF2.51
F0.994
sF-0.57
F0.2843
sF3.13
F0.9991
sF-1.03
F0.1515
sF0.27
F0.6064
sF-2.59
F0.0048
sF0.89
F0.8133
sF1.09
F0.8621
sF1.37
F0.9147
sF-2.25
F0.0122
sF0.85
F0.8023
sF2.99
F0.9986
sF0.96
F0.8315
sF-1.66
F0.0485
sF0.63
F0.7357
sF2.72
F0.9967
sF-0.93
F0.1762
sF1.52
F0.9357
sF-2.53
F0.0057
sF0.53
F0.7019
sF3.45
F0.9997
sF1.17
F0.879
sF-3.48
F0.0003
sF1.18
F0.881
sF-0.5
F0.3085
sF-0.68
F0.2483
sF-1.07
F0.1423
sF1.81
F0.9649
sF1.71
F0.9564
sF1.44
F0.9251
sF1.67
F0.9525
sF0.21
F0.5832
sF-0.91
F0.1814
sF3.46
F0.9997
sF-1.47
F0.0708
sF-3.22
F0.0006
sF-0.64
F0.2611
sF-0.87
F0.1922
sF0.3
F0.6179
sF-1.18
F0.119
sF3.38
F0.9996
sF-1.3
F0.0968
sF1.92
F0.9726
sF-0.83
F0.2033
sF-0.18
F0.4286
sF-0.27
F0.3936
sF-0.35
F0.3632
sF0.51
F0.695
sF0.26
F0.6026
sF-1.46
F0.0721
sF3.49
F0.9999
sF0.81
F0.791
sF1.48
F0.9306
sF0.11
F0.5438
sF-2.73
F0.0032
sF-2.21
F0.0136
sF0.75
F0.7734
sF0.36
F0.6406
sF-3.49
F0.0001
sF1.61
F0.9463
sF3.33
F0.9996
sF-0.72
F0.2358
sF-1.83
F0.0336
sF-1.56
F0.0594
sF1.75
F0.9599
sF1.34
F0.9099
sF-2.1
F0.0179
sF0.44
F0.67
sF0.34
F0.6331
sF2.24
F0.9875
sF-0.05
F0.4801
sF0.78
F0.7823
sF-0.65
F0.2578
sF-0.39
F0.3483
sF0.23
F0.591
sF-1.41
F0.0793
sF-1.89
F0.0294
sF-0.38
F0.352
sF0.04
F0.516
sF-3.13
F0.0009
sF1.58
F0.9429
sF0.88
F0.8106
sF-3.08
F0.001
sF-2.24
F0.0125
sF2.05
F0.9798
sF1.29
F0.9015
sF-2.44
F0.0073
sF-3.16
F0.0008
sF-3.45
F0.0003
sF1.2
F0.8849
sF1.77
F0.9616
sF-0.29
F0.3859
sF2.15
F0.9842
sF-0.2
F0.4207
sF-1.9
F0.0287
sF2.48
F0.9934
sF0.7
F0.758
sF2.31
F0.9896
sF-0.94
F0.1736
sF-2.7
F0.0035
sF-0.45
F0.3264
sF1.96
F0.975
sF1.69
F0.9545
sF2.02
F0.9783
sF2.01
F0.9778
sF0.28
F0.6103
sF-3.3
F0.0005
sF2.39
F0.9916
sF2.17
F0.985
sF2.47
F0.9932
sF0.62
F0.7324
sF0.09
F0.5359
sF-1.31
F0.0951
sF-0.44
F0.33
sF1.88
F0.9699
sF-1.16
F0.123
sF-0.8
F0.2119
sF-0.47
F0.3192
sF-3.21
F0.0007
sF0.52
F0.6985
sF-3.01
F0.0013
sF-1.85
F0.0322
sF2.25
F0.9878
sF1.43
F0.9236
sF-2.97
F0.0015
sF-2.17
F0.015
sF-2.89
F0.0019
sF0.54
F0.7054
sF-2.09
F0.0183
sF1.85
F0.9678
sF2.7
F0.9965
sF-1.42
F0.0778
sF2.35
F0.9906
sF-2.67
F0.0038
sF-1.88
F0.0301
sF-0.62
F0.2676
sF-3.06
F0.0011
sF-2.98
F0.0014
sF-3.15
F0.0008
sF-3.2
F0.0007
sF-1.92
F0.0274
sF-1.21
F0.1131
sF-2.82
F0.0024
sF-2.96
F0.0015
sF1.21
F0.8869
sF2.14
F0.9838
sF-3.26
F0.0006
sF3.3
F0.9995
sF-1.54
F0.0618
sF-0.33
F0.3707
sF1.9
F0.9713
sF-0.21
F0.4168
sF2.27
F0.9884
sF-3.23
F0.0006
sF-2.88
F0.002
sF0.98
F0.8365
sF-3.42
F0.0003
sF0.4
F0.6554
sF1.64
F0.9495
sF1.54
F0.9382
sF1.49
F0.9319
sF-2.49
F0.0064
sF1.68
F0.9535
sF1.33
F0.9082
sF1.87
F0.9693
sF1.12
F0.8686
sF2.68
F0.9963
sF-3.04
F0.0012
sF0.05
F0.5199
sF-2.05
F0.0202
sF0.65
F0.7422
sF1.83
F0.9664
sF-2.58
F0.0049
sF0.08
F0.5319
sF-3.12
F0.0009
sF-1.57
F0.0582
sF1.84
F0.9671
sF-0.84
F0.2005
sF2.84
F0.9977
sF1.26
F0.8962
sF1.79
F0.9633
sF-1.6
F0.0548
sF1.3
F0.9032
sF-2.95
F0.0016
sF1.59
F0.9441
sF-0.6
F0.2743
sF1.1
F0.8643
sF2.07
F0.9808
sF1.22
F0.8888
sF0.18
F0.5714
sF-2.12
F0.017
sF2.41
F0.992
sF1.98
F0.9761
sF-1.81
F0.0351
sF2.61
F0.9955
sF-1.52
F0.0643
sF-1.98
F0.0239
sF-1.78
F0.0375
sF-1.94
F0.0262
sF2.53
F0.9943
sF0.01
F0.504
sF-3.09
F0.001
sF-2.36
F0.0091
sF-1.22
F0.1112
sF1.38
F0.9162
sF-2.63
F0.0043
sF1.8
F0.9641
sF-3.47
F0.0003
sF-1.65
F0.0495
sF0.15
F0.5596
sF-1.05
F0.1469
sF-0.07
F0.4721
sF-2.71
F0.0034
sF2.56
F0.9948
sF-0.52
F0.3015
sF0.14
F0.5557
sF1.28
F0.8997
sF2.93
F0.9983
sF-2.26
F0.0119
sF-2.79
F0.0026
sF-1.26
F0.1038
sF2.85
F0.9978
sF2.4
F0.9918
sF-3.38
F0.0004
sF-0.98
F0.1635
sF1.23
F0.8907
sF2.77
F0.9972
sF2.32
F0.9898
sF0.0
F0.5
sF2.69
F0.9964
sF-0.28
F0.3897
sF0.76
F0.7764
sF1.76
F0.9608
sF-2.33
F0.0099
sF-1.27
F0.102
sF-1.15
F0.1251
sF-0.43
F0.3336
sF0.95
F0.8289
sF-0.92
F0.1788
sF-1.48
F0.0694
sF2.78
F0.9973
sF-2.29
F0.011
sF-1.75
F0.0401
sF1.19
F0.883
sF-0.67
F0.2514
sF-2.55
F0.0054
sF-0.79
F0.2148
sF-3.44
F0.0003
sF-0.9
F0.1841
sF0.8
F0.7881
sF-0.55
F0.2912
sF3.16
F0.9992
sF-0.86
F0.1949
sF-2.92
F0.0018
sF2.64
F0.9959
sF-0.99
F0.1611
sF0.91
F0.8186
sF-1.37
F0.0853
sF-2.46
F0.0069
sF2.81
F0.9975
sF0.57
F0.7157
sF-0.81
F0.209
sF-0.17
F0.4325
sF3.18
F0.9993
sF-3.43
F0.0003
sF-2.54
F0.0055
sF-0.77
F0.2206
sF-0.82
F0.2061
sF2.73
F0.9968
sF-0.01
F0.496
sF-2.11
F0.0174
sF-1.64
F0.0505
sF-2.08
F0.0188
sF1.24
F0.8925
sF-2.62
F0.0044
sF2.65
F0.996
sF3.02
F0.9987
sF0.37
F0.6443
sF0.47
F0.6808
sF-2.99
F0.0014
sF-0.24
F0.4052
sF-1.77
F0.0384
sF2.57
F0.9949
sF-0.11
F0.4562
sF2.94
F0.9984
sF3.08
F0.999
sF0.83
F0.7967
sF0.61
F0.7291
sF3.11
F0.9991
sF-2.51
F0.006
sF0.66
F0.7454
sF-0.04
F0.484
sF3.03
F0.9988
sF-0.59
F0.2776
sF-2.43
F0.0075
sF0.32
F0.6255
sF-2.3
F0.0107
sF-0.3
F0.3821
sF2.97
F0.9985
sF-2.13
F0.0166
sF0.79
F0.7852
sF-0.96
F0.1685
sF-1.06
F0.1446
sF2.89
F0.9981
sF0.48
F0.6844
sF1.11
F0.8665
sF0.49
F0.6879
sF-1.29
F0.0985
sF2.19
F0.9857
sF3.06
F0.9989
sF-1.35
F0.0885
sF3.43
F0.9997
sF-0.71
F0.2389
sF2.98
F0.9986
sF-0.16
F0.4364
sF3.35
F0.9996
sF-2.37
F0.0089
sF-1.7
F0.0446
sF2.9
F0.9981
sF0.25
F0.5987
sF-0.25
F0.4013
sF-1.38
F0.0838
sF-1.5
F0.0668
sF-3.34
F0.0004
sF0.64
F0.7389
sF2.82
F0.9976
sF1.39
F0.9177
sF3.19
F0.9993
sF3.36
F0.9996
sF1.62
F0.9474
sF0.24
F0.5948
sF0.13
F0.5517
sF-1.96
F0.025
sF-0.89
F0.1867
sF3.28
F0.9995
sF2.3
F0.9893
sF-2.34
F0.0096
sF3.22
F0.9994
sF-1.25
F0.1056
sF-2.41
F0.008
sF-2.42
F0.0078
sF2.06
F0.9803
sF-1.04
F0.1492
sF1.55
F0.9394
sF3.27
F0.9995
sF2.38
F0.9913
sF0.42
F0.6628
sF2.46
F0.9931
sF-0.66
F0.2546
sF0.67
F0.7486
sF2.04
F0.9793
sF-1.08
F0.1401
sF1.51
F0.9345
sF2.12
F0.983
sF-0.34
F0.3669
sF3.23
F0.9994
sF-1.39
F0.0823
sF1.47
F0.9292
sF-2.56
F0.0052
sF0.71
F0.7611
sF-3.32
F0.0005
sF-2.18
F0.0146
sF0.19
F0.5753
sF0.07
F0.5279
sF-0.69
F0.2451
sF-2.85
F0.0022
sF2.45
F0.9929
sF-3.46
F0.0003
sF-2.02
F0.0217
sF2.71
F0.9966
sF-2.94
F0.0016
sF3.07
F0.9989
sF0.41
F0.6591
sF-1.36
F0.0869
sF3.44
F0.9997
sF-1.24
F0.1075
sF0.59
F0.7224
sF-2.74
F0.0031
sF-0.61
F0.2709
sF0.17
F0.5675
sF-1.11
F0.1335
sF-2.16
F0.0154
sF-2.61
F0.0045
sF-0.41
F0.3409
sF-2.83
F0.0023
sF-2.78
F0.0027
sF1.31
F0.9049
sF2.09
F0.9817
sF1.53
F0.937
sF-3.39
F0.0003
sF3.47
F0.9997
sF2.52
F0.9941
sF3.39
F0.9997
sF0.2
F0.5793
sF-3.19
F0.0007
sF0.43
F0.6664
sF-2.31
F0.0104
sF1.6
F0.9452
sF0.99
F0.8389
sF1.66
F0.9515
sF3.48
F0.9997
sF-3.05
F0.0011
sF1.45
F0.9265
sF0.38
F0.648
sF1.78
F0.9625
sF1.74
F0.9591
sF-1.95
F0.0256
sF1.03
F0.8485
sF3.4
F0.9997
sF-0.36
F0.3594
sF-0.54
F0.2946
sF3.32
F0.9995
sF-1.73
F0.0418
sF1.63
F0.9484
sF0.72
F0.7642
sF1.42
F0.9222
sF0.92
F0.8212
sF1.57
F0.9418
sF-1.8
F0.0359
sF1.46
F0.9279
sF1.36
F0.9131
sF0.69
F0.7549
sF-0.14
F0.4443
sF2.21
F0.9864
sF-2.87
F0.0021
sF0.45
F0.6736
sF-2.4
F0.0082
sF-0.19
F0.4247
sF-1.02
F0.1539
sF-1.61
F0.0537
sF0.68
F0.7517
sF-1.71
F0.0436
sF-1.69
F0.0455
sF-3.41
F0.0003
sF-1.63
F0.0516
sF-1.28
F0.1003
sF3.01
F0.9987
sF2.18
F0.9854
sF1.4
F0.9192
sF0.77
F0.7794
sF-2.03
F0.0212
sF0.02
F0.508
sF-1.53
F0.063
sF-1.74
F0.0409
sF1.72
F0.9573
sF-1.2
F0.1151
sF0.39
F0.6517
sF-1.91
F0.0281
sF-1.19
F0.117
sF-0.76
F0.2236
sF-1.97
F0.0244
sF0.6
F0.7257
sF1.01
F0.8438
sF1.7
F0.9554
sF0.35
F0.6368
sF-2.2
F0.0139
sF2.08
F0.9812
sF-1.82
F0.0344
sF-2.35
F0.0094
sF-0.58
F0.281
sF1.94
F0.9738
sF-0.4
F0.3446
sF0.56
F0.7123
sF0.84
F0.7995
sF-3.31
F0.0005
sF-1.13
F0.1292
sF-3.29
F0.0005
sF-1.12
F0.1314
sF2.26
F0.9881
sF3.41
F0.9997
sF2.42
F0.9922
sF-2.76
F0.0029
sF0.86
F0.8051
sF1.04
F0.8508
sF3.14
F0.9992
sF2.34
F0.9904
sF-3.28
F0.0005
sF-0.31
F0.3783
sF2.74
F0.9969
sF-3.07
F0.0011
sF-0.51
F0.305
sF-1.1
F0.1357
sF-3.36
F0.0004
sF-0.73
F0.2327
sF-0.49
F0.3121
sF1.93
F0.9732
sF-0.78
F0.2177
sF2.11
F0.9826
sF1.32
F0.9066
sF-0.74
F0.2296
sF1.89
F0.9706
sF-3.27
F0.0005
sF0.06
F0.5239
sF0.73
F0.7673
sF1.86
F0.9686
sF2.95
F0.9984
sF-2.91
F0.0018
sF2.37
F0.9911
sF-3.35
F0.0004
sF-0.06
F0.4761
sF-1.49
F0.0681
sF3.31
F0.9995
sF1.82
F0.9656
sF-0.95
F0.1711
sF2.29
F0.989
sF-3.17
F0.0008
sF-3.33
F0.0004
sF0.87
F0.8078
sF2.6
F0.9953
sF1.13
F0.8708
sF2.66
F0.9961
sF0.22
F0.5871
sF-0.97
F0.166
sF-1.99
F0.0233
sF2.67
F0.9962
sF-1.87
F0.0307
sF2.5
F0.9938
sF2.59
F0.9952
sF-3.03
F0.0012
sF0.1
F0.5398
sF0.55
F0.7088
sF1.05
F0.8531
sF-1.4
F0.0808
sF1.97
F0.9756
sF-3.11
F0.0009
sF2.23
F0.9871
sF-1.45
F0.0735
sF-2.57
F0.0051
sF-0.22
F0.4129
sF2.58
F0.9951
sF-3.02
F0.0013
sF-3.14
F0.0008
sF-2.65
F0.004
sF0.94
F0.8264
sF2.62
F0.9956
sF-3.1
F0.001
sF0.29
F0.6141
sF-0.46
F0.3228
sF2.2
F0.9861
sF-2.06
F0.0197
sF1.14
F0.8729
sF1.41
F0.9207
sF2.54
F0.9945
sF-3.18
F0.0007
sF3.04
F0.9988
sF-2.81
F0.0025
sF-0.26
F0.3974
sF3.24
F0.9994
sF1.99
F0.9767
sF-2.64
F0.0041
sF3.15
F0.9992
sF-1.86
F0.0314
sF-0.63
F0.2643
sF2.92
F0.9982
sF1.95
F0.9744
sF-2.72
F0.0033
sF2.75
F0.997
sF1.02
F0.8461
sF2.55
F0.9946
sF1.06
F0.8554
sF-2.22
F0.0132
sF1.91
F0.9719
sF2.76
F0.9971
sF-2.86
F0.0021
sF2.28
F0.9887
sF0.31
F0.6217
sF-2.27
F0.0116
sF2.36
F0.9909
sF2.16
F0.9846
sF-0.09
F0.4641
sF-0.7
F0.242
sF0.74
F0.7704
sF-2.69
F0.0036
sF2.49
F0.9936
sF2.96
F0.9985
sF-2.52
F0.0059
sF0.5
F0.6915
sF-2.77
F0.0028
sF-0.13
F0.4483
sF0.97
F0.834
sF0.16
F0.5636
sF2.44
F0.9927
sF-2.01
F0.0222
sF-2.04
F0.0207
sF2.87
F0.9979
sF-2.45
F0.0071
sF1.15
F0.8749
sF2.33
F0.9901
sF2.43
F0.9925
sF-0.03
F0.488
sF-2.48
F0.0066
sF2.79
F0.9974
sF-2.93
F0.0017
sF-0.37
F0.3557
sF1.25
F0.8944
sF-0.56
F0.2877
sF3.42
F0.9997
sF-3.4
F0.0003
sF-0.1
F0.4602
sF0.9
F0.8159
sF-1.84
F0.0329
sF-2.39
F0.0084
sF0.33
F0.6293
sF-1.93
F0.0268
sF-1.44
F0.0749
sF3.17
F0.9992
sF-2.38
F0.0087
sF2.63
F0.9957
sF1.08
F0.8599
sF1.07
F0.8577
sF2.13
F0.9834
sF-2.47
F0.0068
sF3.09
F0.999
sF2.8
F0.9974
sF3.1
F0.999
sF-0.12
F0.4522
sF3.25
F0.9994
sF-1.51
F0.0655
sF-2.8
F0.0026
sF-0.42
F0.3372
sF-1.23
F0.1093
sF-3.24
F0.0006
sF2.1
F0.9821
sF3.34
F0.9996
sF-2.07
F0.0192
sF-1.59
F0.0559
sF-0.02
F0.492
sF1.65
F0.9505
sF-0.88
F0.1894
sF1.16
F0.877
sF-0.15
F0.4404
sF-2.15
F0.0158
sF3.12
F0.9991
sF-2.6
F0.0047
sF-1.32
F0.0934
sF-0.48
F0.3156
sF-2.23
F0.0129
sF-0.53
F0.2981
sF0.03
F0.512
sF-2.66
F0.0039
sF-2.68
F0.0037
sF-1.34
F0.0901
sF1.73
F0.9582
sF0.93
F0.8238
sF1.27
F0.898
sF1.56
F0.9406
sF-2.14
F0.0162
sF-2.19
F0.0143
sF-1.43
F0.0764
sF2.88
F0.998
sF-0.08
F0.4681
sF-1.76
F0.0392
sF0.58
F0.719
sF-1.09
F0.1379
sF-0.85
F0.1977
sF-0.23
F0.409
sF-1.55
F0.0606
sF3.05
F0.9989
sF1.35
F0.9115
sF-1.01
F0.1562
sF-2.84
F0.0023
sF-2.28
F0.0113
sF2.86
F0.9979
sF-1.67
F0.0475
sF-1.72
F0.0427
sF-1.17
F0.121
sF-3.37
F0.0004
sF3.26
F0.9994
sF0.82
F0.7939
sF-3.0
F0.0013
sF-2.0
F0.0228
sF2.22
F0.9868
sF-1.62
F0.0526
sF-1.0
F0.1587
s.